target datalayout = "e-m:e-p270:32:32-p271:32:32-p272:64:64-i64:64-i128:128-f80:128-n8:16:32:64-S128"
target triple = "x86_64-pc-linux-gnu"

%"class.OpenColorIO_v2_5dev::OpCPU" = type { ptr }
%"struct.OpenColorIO_v2_5dev::ACES2::JMhParams" = type { float, float, float, float, %"struct.std::array", %"struct.std::array", %"struct.std::array.13", %"struct.std::array.13" }
%"struct.std::array" = type { [3 x float] }
%"struct.std::array.13" = type { [9 x float] }
%"struct.OpenColorIO_v2_5dev::ACES2::ToneScaleParams" = type { float, float, float, float, float, float, float, float }
%"struct.OpenColorIO_v2_5dev::ACES2::ChromaCompressParams" = type { float, float, float, float, float, %"struct.OpenColorIO_v2_5dev::ACES2::Table1D", float }
%"struct.OpenColorIO_v2_5dev::ACES2::Table1D" = type { [362 x float] }
%"struct.OpenColorIO_v2_5dev::ACES2::GamutCompressParams" = type { float, float, float, float, float, %"struct.OpenColorIO_v2_5dev::ACES2::Table1D", %"struct.OpenColorIO_v2_5dev::ACES2::Table3D", %"struct.OpenColorIO_v2_5dev::ACES2::Table1D" }
%"struct.OpenColorIO_v2_5dev::ACES2::Table3D" = type { [362 x [3 x float]] }
%"class.OpenColorIO_v2_5dev::Renderer_ACES_OutputTransform20" = type { %"class.OpenColorIO_v2_5dev::OpCPU", i8, %"struct.OpenColorIO_v2_5dev::ACES2::JMhParams", %"struct.OpenColorIO_v2_5dev::ACES2::JMhParams", %"struct.OpenColorIO_v2_5dev::ACES2::ToneScaleParams", %"struct.OpenColorIO_v2_5dev::ACES2::ChromaCompressParams", %"struct.OpenColorIO_v2_5dev::ACES2::GamutCompressParams" }

; Function Attrs: mustprogress nounwind uwtable
define linkonce_odr hidden noundef nonnull align 4 dereferenceable(4) ptr @_ZNSt14__array_traitsIfLm3EE6_S_refERA3_Kfm(ptr noundef nonnull align 4 dereferenceable(12) %0, i64 noundef %1) #4 comdat align 2 {
  %3 = alloca ptr, align 8
  %4 = alloca i64, align 8
  store ptr %0, ptr %3, align 8, !tbaa !29
  store i64 %1, ptr %4, align 8, !tbaa !27
  %5 = load ptr, ptr %3, align 8, !tbaa !29
  %6 = load i64, ptr %4, align 8, !tbaa !27
  %7 = getelementptr inbounds nuw [3 x float], ptr %5, i64 0, i64 %6
  ret ptr %7
}

; Function Attrs: mustprogress nounwind uwtable
define linkonce_odr hidden noundef nonnull align 4 dereferenceable(4) ptr @_ZNKSt5arrayIfLm3EEixEm(ptr noundef nonnull align 4 dereferenceable(12) %0, i64 noundef %1) #4 comdat align 2 {
  %3 = alloca ptr, align 8
  %4 = alloca i64, align 8
  store ptr %0, ptr %3, align 8, !tbaa !137
  store i64 %1, ptr %4, align 8, !tbaa !27
  %5 = load ptr, ptr %3, align 8
  %6 = getelementptr inbounds nuw %"struct.std::array", ptr %5, i32 0, i32 0
  %7 = load i64, ptr %4, align 8, !tbaa !27
  %8 = call noundef nonnull align 4 dereferenceable(4) ptr @_ZNSt14__array_traitsIfLm3EE6_S_refERA3_Kfm(ptr noundef nonnull align 4 dereferenceable(12) %6, i64 noundef %7) #3
  ret ptr %8
}

; Function Attrs: mustprogress uwtable
define hidden void @_ZNK19OpenColorIO_v2_5dev31Renderer_ACES_OutputTransform203invEPKvPvl(ptr noundef nonnull align 8 dereferenceable(9000) %0, ptr noundef %1, ptr noundef %2, i64 noundef %3) #12 align 2 {
  %5 = alloca ptr, align 8
  %6 = alloca ptr, align 8
  %7 = alloca ptr, align 8
  %8 = alloca i64, align 8
  %9 = alloca ptr, align 8
  %10 = alloca ptr, align 8
  %11 = alloca i64, align 8
  %12 = alloca %"struct.std::array", align 4
  %13 = alloca %"struct.std::array", align 4
  %14 = alloca { <2 x float>, float }, align 8
  %15 = alloca %"struct.std::array", align 4
  %16 = alloca { <2 x float>, float }, align 8
  %17 = alloca %"struct.std::array", align 4
  %18 = alloca { <2 x float>, float }, align 8
  %19 = alloca %"struct.std::array", align 4
  %20 = alloca { <2 x float>, float }, align 8
  store ptr %0, ptr %5, align 8, !tbaa !91
  store ptr %1, ptr %6, align 8, !tbaa !26
  store ptr %2, ptr %7, align 8, !tbaa !26
  store i64 %3, ptr %8, align 8, !tbaa !27
  %21 = load ptr, ptr %5, align 8
  call void @llvm.lifetime.start.p0(i64 8, ptr %9) #3
  %22 = load ptr, ptr %6, align 8, !tbaa !26
  store ptr %22, ptr %9, align 8, !tbaa !29
  call void @llvm.lifetime.start.p0(i64 8, ptr %10) #3
  %23 = load ptr, ptr %7, align 8, !tbaa !26
  store ptr %23, ptr %10, align 8, !tbaa !29
  call void @llvm.lifetime.start.p0(i64 8, ptr %11) #3
  store i64 0, ptr %11, align 8, !tbaa !27
  br label %24

24:                                               ; preds = %77, %4
  %25 = load i64, ptr %11, align 8, !tbaa !27
  %26 = load i64, ptr %8, align 8, !tbaa !27
  %27 = icmp slt i64 %25, %26
  br i1 %27, label %29, label %28

28:                                               ; preds = %24
  call void @llvm.lifetime.end.p0(i64 8, ptr %11) #3
  br label %80

29:                                               ; preds = %24
  call void @llvm.lifetime.start.p0(i64 12, ptr %12) #3
  %30 = getelementptr inbounds nuw %"struct.std::array", ptr %12, i32 0, i32 0
  %31 = load ptr, ptr %9, align 8, !tbaa !29
  %32 = getelementptr inbounds float, ptr %31, i64 0
  %33 = load float, ptr %32, align 4, !tbaa !31
  store float %33, ptr %30, align 4, !tbaa !31
  %34 = getelementptr inbounds float, ptr %30, i64 1
  %35 = load ptr, ptr %9, align 8, !tbaa !29
  %36 = getelementptr inbounds float, ptr %35, i64 1
  %37 = load float, ptr %36, align 4, !tbaa !31
  store float %37, ptr %34, align 4, !tbaa !31
  %38 = getelementptr inbounds float, ptr %30, i64 2
  %39 = load ptr, ptr %9, align 8, !tbaa !29
  %40 = getelementptr inbounds float, ptr %39, i64 2
  %41 = load float, ptr %40, align 4, !tbaa !31
  store float %41, ptr %38, align 4, !tbaa !31
  call void @llvm.lifetime.start.p0(i64 12, ptr %13) #3
  %42 = getelementptr inbounds nuw %"class.OpenColorIO_v2_5dev::Renderer_ACES_OutputTransform20", ptr %21, i32 0, i32 3
  %43 = call { <2 x float>, float } @_ZN19OpenColorIO_v2_5dev5ACES210RGB_to_JMhERKSt5arrayIfLm3EERKNS0_9JMhParamsE(ptr noundef nonnull align 4 dereferenceable(12) %12, ptr noundef nonnull align 4 dereferenceable(112) %42)
  %44 = getelementptr inbounds nuw %"struct.std::array", ptr %13, i32 0, i32 0
  store { <2 x float>, float } %43, ptr %14, align 8
  call void @llvm.memcpy.p0.p0.i64(ptr align 4 %44, ptr align 8 %14, i64 12, i1 false)
  call void @llvm.lifetime.start.p0(i64 12, ptr %15) #3
  %45 = getelementptr inbounds nuw %"class.OpenColorIO_v2_5dev::Renderer_ACES_OutputTransform20", ptr %21, i32 0, i32 6
  %46 = call { <2 x float>, float } @_ZN19OpenColorIO_v2_5dev5ACES218gamut_compress_invERKSt5arrayIfLm3EERKNS0_19GamutCompressParamsE(ptr noundef nonnull align 4 dereferenceable(12) %13, ptr noundef nonnull align 4 dereferenceable(7260) %45)
  %47 = getelementptr inbounds nuw %"struct.std::array", ptr %15, i32 0, i32 0
  store { <2 x float>, float } %46, ptr %16, align 8
  call void @llvm.memcpy.p0.p0.i64(ptr align 4 %47, ptr align 8 %16, i64 12, i1 false)
  call void @llvm.lifetime.start.p0(i64 12, ptr %17) #3
  %48 = getelementptr inbounds nuw %"class.OpenColorIO_v2_5dev::Renderer_ACES_OutputTransform20", ptr %21, i32 0, i32 2
  %49 = getelementptr inbounds nuw %"class.OpenColorIO_v2_5dev::Renderer_ACES_OutputTransform20", ptr %21, i32 0, i32 4
  %50 = getelementptr inbounds nuw %"class.OpenColorIO_v2_5dev::Renderer_ACES_OutputTransform20", ptr %21, i32 0, i32 5
  %51 = call { <2 x float>, float } @_ZN19OpenColorIO_v2_5dev5ACES229tonescale_chroma_compress_invERKSt5arrayIfLm3EERKNS0_9JMhParamsERKNS0_15ToneScaleParamsERKNS0_20ChromaCompressParamsE(ptr noundef nonnull align 4 dereferenceable(12) %15, ptr noundef nonnull align 4 dereferenceable(112) %48, ptr noundef nonnull align 4 dereferenceable(32) %49, ptr noundef nonnull align 4 dereferenceable(1472) %50)
  %52 = getelementptr inbounds nuw %"struct.std::array", ptr %17, i32 0, i32 0
  store { <2 x float>, float } %51, ptr %18, align 8
  call void @llvm.memcpy.p0.p0.i64(ptr align 4 %52, ptr align 8 %18, i64 12, i1 false)
  call void @llvm.lifetime.start.p0(i64 12, ptr %19) #3
  %53 = getelementptr inbounds nuw %"class.OpenColorIO_v2_5dev::Renderer_ACES_OutputTransform20", ptr %21, i32 0, i32 2
  %54 = call { <2 x float>, float } @_ZN19OpenColorIO_v2_5dev5ACES210JMh_to_RGBERKSt5arrayIfLm3EERKNS0_9JMhParamsE(ptr noundef nonnull align 4 dereferenceable(12) %17, ptr noundef nonnull align 4 dereferenceable(112) %53)
  %55 = getelementptr inbounds nuw %"struct.std::array", ptr %19, i32 0, i32 0
  store { <2 x float>, float } %54, ptr %20, align 8
  call void @llvm.memcpy.p0.p0.i64(ptr align 4 %55, ptr align 8 %20, i64 12, i1 false)
  %56 = call noundef nonnull align 4 dereferenceable(4) ptr @_ZNKSt5arrayIfLm3EEixEm(ptr noundef nonnull align 4 dereferenceable(12) %19, i64 noundef 0) #3
  %57 = load float, ptr %56, align 4, !tbaa !31
  %58 = load ptr, ptr %10, align 8, !tbaa !29
  %59 = getelementptr inbounds float, ptr %58, i64 0
  store float %57, ptr %59, align 4, !tbaa !31
  %60 = call noundef nonnull align 4 dereferenceable(4) ptr @_ZNKSt5arrayIfLm3EEixEm(ptr noundef nonnull align 4 dereferenceable(12) %19, i64 noundef 1) #3
  %61 = load float, ptr %60, align 4, !tbaa !31
  %62 = load ptr, ptr %10, align 8, !tbaa !29
  %63 = getelementptr inbounds float, ptr %62, i64 1
  store float %61, ptr %63, align 4, !tbaa !31
  %64 = call noundef nonnull align 4 dereferenceable(4) ptr @_ZNKSt5arrayIfLm3EEixEm(ptr noundef nonnull align 4 dereferenceable(12) %19, i64 noundef 2) #3
  %65 = load float, ptr %64, align 4, !tbaa !31
  %66 = load ptr, ptr %10, align 8, !tbaa !29
  %67 = getelementptr inbounds float, ptr %66, i64 2
  store float %65, ptr %67, align 4, !tbaa !31
  %68 = load ptr, ptr %9, align 8, !tbaa !29
  %69 = getelementptr inbounds float, ptr %68, i64 3
  %70 = load float, ptr %69, align 4, !tbaa !31
  %71 = load ptr, ptr %10, align 8, !tbaa !29
  %72 = getelementptr inbounds float, ptr %71, i64 3
  store float %70, ptr %72, align 4, !tbaa !31
  %73 = load ptr, ptr %9, align 8, !tbaa !29
  %74 = getelementptr inbounds float, ptr %73, i64 4
  store ptr %74, ptr %9, align 8, !tbaa !29
  %75 = load ptr, ptr %10, align 8, !tbaa !29
  %76 = getelementptr inbounds float, ptr %75, i64 4
  store ptr %76, ptr %10, align 8, !tbaa !29
  call void @llvm.lifetime.end.p0(i64 12, ptr %19) #3
  call void @llvm.lifetime.end.p0(i64 12, ptr %17) #3
  call void @llvm.lifetime.end.p0(i64 12, ptr %15) #3
  call void @llvm.lifetime.end.p0(i64 12, ptr %13) #3
  call void @llvm.lifetime.end.p0(i64 12, ptr %12) #3
  br label %77

77:                                               ; preds = %29
  %78 = load i64, ptr %11, align 8, !tbaa !27
  %79 = add nsw i64 %78, 1
  store i64 %79, ptr %11, align 8, !tbaa !27
  br label %24, !llvm.loop !136

80:                                               ; preds = %28
  call void @llvm.lifetime.end.p0(i64 8, ptr %10) #3
  call void @llvm.lifetime.end.p0(i64 8, ptr %9) #3
  ret void
}